; ModuleID = 'source-C-CXX/51/5690.cpp'
source_filename = "source-C-CXX/51/5690.cpp"
target datalayout = "e-m:e-p270:32:32-p271:32:32-p272:64:64-i64:64-f80:128-n8:16:32:64-S128"
target triple = "x86_64-pc-linux-gnu"

%"class.std::ios_base::Init" = type { i8 }
%"class.std::basic_istream" = type { i32 (...)**, i64, %"class.std::basic_ios" }
%"class.std::basic_ios" = type { %"class.std::ios_base", %"class.std::basic_ostream"*, i8, i8, %"class.std::basic_streambuf"*, %"class.std::ctype"*, %"class.std::num_put"*, %"class.std::num_get"* }
%"class.std::ios_base" = type { i32 (...)**, i64, i64, i32, i32, i32, %"struct.std::ios_base::_Callback_list"*, %"struct.std::ios_base::_Words", [8 x %"struct.std::ios_base::_Words"], i32, %"struct.std::ios_base::_Words"*, %"class.std::locale" }
%"struct.std::ios_base::_Callback_list" = type { %"struct.std::ios_base::_Callback_list"*, void (i32, %"class.std::ios_base"*, i32)*, i32, i32 }
%"struct.std::ios_base::_Words" = type { i8*, i64 }
%"class.std::locale" = type { %"class.std::locale::_Impl"* }
%"class.std::locale::_Impl" = type { i32, %"class.std::locale::facet"**, i64, %"class.std::locale::facet"**, i8** }
%"class.std::locale::facet" = type <{ i32 (...)**, i32, [4 x i8] }>
%"class.std::basic_ostream" = type { i32 (...)**, %"class.std::basic_ios" }
%"class.std::basic_streambuf" = type { i32 (...)**, i8*, i8*, i8*, i8*, i8*, i8*, %"class.std::locale" }
%"class.std::ctype" = type <{ %"class.std::locale::facet.base", [4 x i8], %struct.__locale_struct*, i8, [7 x i8], i32*, i32*, i16*, i8, [256 x i8], [256 x i8], i8, [6 x i8] }>
%"class.std::locale::facet.base" = type <{ i32 (...)**, i32 }>
%struct.__locale_struct = type { [13 x %struct.__locale_data*], i16*, i32*, i32*, [13 x i8*] }
%struct.__locale_data = type opaque
%"class.std::num_put" = type { %"class.std::locale::facet.base", [4 x i8] }
%"class.std::num_get" = type { %"class.std::locale::facet.base", [4 x i8] }

@_ZStL8__ioinit = internal global %"class.std::ios_base::Init" zeroinitializer, align 1
@__dso_handle = external hidden global i8
@_ZSt3cin = external global %"class.std::basic_istream", align 8
@_ZSt4cout = external global %"class.std::basic_ostream", align 8
@llvm.global_ctors = appending global [1 x { i32, void ()*, i8* }] [{ i32, void ()*, i8* } { i32 65535, void ()* @_GLOBAL__sub_I_5690.cpp, i8* null }]

declare void @_ZNSt8ios_base4InitC1Ev(%"class.std::ios_base::Init"* nonnull align 1 dereferenceable(1)) unnamed_addr #0

; Function Attrs: nounwind
declare void @_ZNSt8ios_base4InitD1Ev(%"class.std::ios_base::Init"* nonnull align 1 dereferenceable(1)) unnamed_addr #1

; Function Attrs: nofree nounwind
declare i32 @__cxa_atexit(void (i8*)*, i8*, i8*) local_unnamed_addr #2

; Function Attrs: mustprogress norecurse sspstrong uwtable
define dso_local i32 @main() local_unnamed_addr #3 {
  %1 = alloca i8, align 1
  %2 = alloca i8, align 1
  %3 = alloca [102 x i32], align 16
  %4 = alloca i32, align 4
  %5 = alloca i32, align 4
  %6 = bitcast [102 x i32]* %3 to i8*
  call void @llvm.lifetime.start.p0i8(i64 408, i8* nonnull %6) #6
  %7 = bitcast i32* %4 to i8*
  call void @llvm.lifetime.start.p0i8(i64 4, i8* nonnull %7) #6
  %8 = bitcast i32* %5 to i8*
  call void @llvm.lifetime.start.p0i8(i64 4, i8* nonnull %8) #6
  %9 = call nonnull align 8 dereferenceable(16) %"class.std::basic_istream"* @_ZNSirsERi(%"class.std::basic_istream"* nonnull align 8 dereferenceable(16) @_ZSt3cin, i32* nonnull align 4 dereferenceable(4) %4)
  %10 = call nonnull align 8 dereferenceable(16) %"class.std::basic_istream"* @_ZNSirsERi(%"class.std::basic_istream"* nonnull align 8 dereferenceable(16) %9, i32* nonnull align 4 dereferenceable(4) %5)
  %11 = getelementptr inbounds [102 x i32], [102 x i32]* %3, i64 0, i64 0
  %12 = load i32, i32* %4, align 4, !tbaa !5
  %13 = icmp sgt i32 %12, 0
  br i1 %13, label %14, label %22

14:                                               ; preds = %0, %14
  %15 = phi i32* [ %17, %14 ], [ %11, %0 ]
  %16 = call nonnull align 8 dereferenceable(16) %"class.std::basic_istream"* @_ZNSirsERi(%"class.std::basic_istream"* nonnull align 8 dereferenceable(16) @_ZSt3cin, i32* nonnull align 4 dereferenceable(4) %15)
  %17 = getelementptr inbounds i32, i32* %15, i64 1
  %18 = load i32, i32* %4, align 4, !tbaa !5
  %19 = sext i32 %18 to i64
  %20 = getelementptr inbounds [102 x i32], [102 x i32]* %3, i64 0, i64 %19
  %21 = icmp ult i32* %17, %20
  br i1 %21, label %14, label %22, !llvm.loop !9

22:                                               ; preds = %14, %0
  %23 = phi i32 [ %12, %0 ], [ %18, %14 ]
  %24 = load i32, i32* %5, align 4, !tbaa !5
  %25 = sub nsw i32 %23, %24
  %26 = sext i32 %25 to i64
  %27 = getelementptr inbounds [102 x i32], [102 x i32]* %3, i64 0, i64 %26
  %28 = load i32, i32* %27, align 4, !tbaa !5
  %29 = call nonnull align 8 dereferenceable(8) %"class.std::basic_ostream"* @_ZNSolsEi(%"class.std::basic_ostream"* nonnull align 8 dereferenceable(8) @_ZSt4cout, i32 %28)
  %30 = load i32, i32* %4, align 4, !tbaa !5
  %31 = sext i32 %30 to i64
  %32 = load i32, i32* %5, align 4, !tbaa !5
  %33 = sext i32 %32 to i64
  %34 = icmp sgt i32 %32, 1
  br i1 %34, label %35, label %43

35:                                               ; preds = %22
  %36 = sub nsw i64 1, %33
  %37 = getelementptr inbounds [102 x i32], [102 x i32]* %3, i64 0, i64 %31
  %38 = getelementptr inbounds i32, i32* %37, i64 %36
  br label %50

39:                                               ; preds = %50
  %40 = sext i32 %56 to i64
  %41 = load i32, i32* %5, align 4, !tbaa !5
  %42 = sext i32 %41 to i64
  br label %43

43:                                               ; preds = %39, %22
  %44 = phi i64 [ %42, %39 ], [ %33, %22 ]
  %45 = phi i64 [ %40, %39 ], [ %31, %22 ]
  %46 = getelementptr inbounds [102 x i32], [102 x i32]* %3, i64 0, i64 %45
  %47 = sub nsw i64 0, %44
  %48 = getelementptr inbounds i32, i32* %46, i64 %47
  %49 = icmp ult i32* %11, %48
  br i1 %49, label %60, label %74

50:                                               ; preds = %35, %50
  %51 = phi i32* [ %55, %50 ], [ %38, %35 ]
  call void @llvm.lifetime.start.p0i8(i64 1, i8* nonnull %2)
  store i8 32, i8* %2, align 1, !tbaa !11
  %52 = call nonnull align 8 dereferenceable(8) %"class.std::basic_ostream"* @_ZSt16__ostream_insertIcSt11char_traitsIcEERSt13basic_ostreamIT_T0_ES6_PKS3_l(%"class.std::basic_ostream"* nonnull align 8 dereferenceable(8) @_ZSt4cout, i8* nonnull %2, i64 1)
  call void @llvm.lifetime.end.p0i8(i64 1, i8* nonnull %2)
  %53 = load i32, i32* %51, align 4, !tbaa !5
  %54 = call nonnull align 8 dereferenceable(8) %"class.std::basic_ostream"* @_ZNSolsEi(%"class.std::basic_ostream"* nonnull align 8 dereferenceable(8) %52, i32 %53)
  %55 = getelementptr inbounds i32, i32* %51, i64 1
  %56 = load i32, i32* %4, align 4, !tbaa !5
  %57 = sext i32 %56 to i64
  %58 = getelementptr inbounds [102 x i32], [102 x i32]* %3, i64 0, i64 %57
  %59 = icmp ult i32* %55, %58
  br i1 %59, label %50, label %39, !llvm.loop !12

60:                                               ; preds = %43, %60
  %61 = phi i32* [ %65, %60 ], [ %11, %43 ]
  call void @llvm.lifetime.start.p0i8(i64 1, i8* nonnull %1)
  store i8 32, i8* %1, align 1, !tbaa !11
  %62 = call nonnull align 8 dereferenceable(8) %"class.std::basic_ostream"* @_ZSt16__ostream_insertIcSt11char_traitsIcEERSt13basic_ostreamIT_T0_ES6_PKS3_l(%"class.std::basic_ostream"* nonnull align 8 dereferenceable(8) @_ZSt4cout, i8* nonnull %1, i64 1)
  call void @llvm.lifetime.end.p0i8(i64 1, i8* nonnull %1)
  %63 = load i32, i32* %61, align 4, !tbaa !5
  %64 = call nonnull align 8 dereferenceable(8) %"class.std::basic_ostream"* @_ZNSolsEi(%"class.std::basic_ostream"* nonnull align 8 dereferenceable(8) %62, i32 %63)
  %65 = getelementptr inbounds i32, i32* %61, i64 1
  %66 = load i32, i32* %4, align 4, !tbaa !5
  %67 = sext i32 %66 to i64
  %68 = getelementptr inbounds [102 x i32], [102 x i32]* %3, i64 0, i64 %67
  %69 = load i32, i32* %5, align 4, !tbaa !5
  %70 = sext i32 %69 to i64
  %71 = sub nsw i64 0, %70
  %72 = getelementptr inbounds i32, i32* %68, i64 %71
  %73 = icmp ult i32* %65, %72
  br i1 %73, label %60, label %74, !llvm.loop !13

74:                                               ; preds = %60, %43
  call void @llvm.lifetime.end.p0i8(i64 4, i8* nonnull %8) #6
  call void @llvm.lifetime.end.p0i8(i64 4, i8* nonnull %7) #6
  call void @llvm.lifetime.end.p0i8(i64 408, i8* nonnull %6) #6
  ret i32 0
}

; Function Attrs: argmemonly mustprogress nofree nosync nounwind willreturn
declare void @llvm.lifetime.start.p0i8(i64 immarg, i8* nocapture) #4

declare nonnull align 8 dereferenceable(16) %"class.std::basic_istream"* @_ZNSirsERi(%"class.std::basic_istream"* nonnull align 8 dereferenceable(16), i32* nonnull align 4 dereferenceable(4)) local_unnamed_addr #0

declare nonnull align 8 dereferenceable(8) %"class.std::basic_ostream"* @_ZNSolsEi(%"class.std::basic_ostream"* nonnull align 8 dereferenceable(8), i32) local_unnamed_addr #0

; Function Attrs: argmemonly mustprogress nofree nosync nounwind willreturn
declare void @llvm.lifetime.end.p0i8(i64 immarg, i8* nocapture) #4

declare nonnull align 8 dereferenceable(8) %"class.std::basic_ostream"* @_ZSt16__ostream_insertIcSt11char_traitsIcEERSt13basic_ostreamIT_T0_ES6_PKS3_l(%"class.std::basic_ostream"* nonnull align 8 dereferenceable(8), i8*, i64) local_unnamed_addr #0

; Function Attrs: sspstrong uwtable
define internal void @_GLOBAL__sub_I_5690.cpp() #5 section ".text.startup" {
  tail call void @_ZNSt8ios_base4InitC1Ev(%"class.std::ios_base::Init"* nonnull align 1 dereferenceable(1) @_ZStL8__ioinit)
  %1 = tail call i32 @__cxa_atexit(void (i8*)* bitcast (void (%"class.std::ios_base::Init"*)* @_ZNSt8ios_base4InitD1Ev to void (i8*)*), i8* getelementptr inbounds (%"class.std::ios_base::Init", %"class.std::ios_base::Init"* @_ZStL8__ioinit, i64 0, i32 0), i8* nonnull @__dso_handle) #6
  ret void
}


!llvm.module.flags = !{!0, !1, !2, !3}
!llvm.ident = !{!4}

!0 = !{i32 1, !"wchar_size", i32 4}
!1 = !{i32 7, !"PIC Level", i32 2}
!2 = !{i32 7, !"PIE Level", i32 2}
!3 = !{i32 7, !"uwtable", i32 1}
!4 = !{!"clang version 13.0.0"}
!5 = !{!6, !6, i64 0}
!6 = !{!"int", !7, i64 0}
!7 = !{!"omnipotent char", !8, i64 0}
!8 = !{!"Simple C++ TBAA"}
!9 = distinct !{!9, !10}
!10 = !{!"llvm.loop.mustprogress"}
!11 = !{!7, !7, i64 0}
!12 = distinct !{!12, !10}
!13 = distinct !{!13, !10}
